; Function Attrs: mustprogress nounwind uwtable
define hidden void @_ZN30G1MonotonicArenaFreeMemoryTask16notify_new_statsEP27G1MonotonicArenaMemoryStatsS1_(ptr noundef nonnull align 8 dereferenceable(120) %0, ptr nocapture noundef readonly %1, ptr nocapture noundef readonly %2) local_unnamed_addr #2 align 2 {
  %4 = alloca %class.G1MonotonicArenaMemoryStats, align 8
  %5 = getelementptr inbounds i8, ptr %0, i64 48
  tail call void @llvm.memcpy.p0.p0.i64(ptr noundef nonnull align 8 dereferenceable(64) %5, ptr noundef nonnull align 8 dereferenceable(64) %1, i64 64, i1 false)
  call void @llvm.lifetime.start.p0(i64 64, ptr nonnull %4)
  call void @llvm.memcpy.p0.p0.i64(ptr noundef nonnull align 8 dereferenceable(64) %4, ptr noundef nonnull align 8 dereferenceable(64) %2, i64 64, i1 false)
  %6 = getelementptr inbounds i8, ptr %4, i64 32
  %7 = getelementptr inbounds i8, ptr %0, i64 80
  br label %8

8:                                                ; preds = %8, %3
  %indvars.iv.i = phi i64 [ 0, %3 ], [ %indvars.iv.next.i, %8 ]
  %9 = getelementptr inbounds [4 x i64], ptr %4, i64 0, i64 %indvars.iv.i
  %10 = load i64, ptr %9, align 8
  %11 = getelementptr inbounds [4 x i64], ptr %5, i64 0, i64 %indvars.iv.i
  %12 = load i64, ptr %11, align 8
  %13 = add i64 %12, %10
  store i64 %13, ptr %11, align 8
  %14 = getelementptr inbounds [4 x i64], ptr %6, i64 0, i64 %indvars.iv.i
  %15 = load i64, ptr %14, align 8
  %16 = getelementptr inbounds [4 x i64], ptr %7, i64 0, i64 %indvars.iv.i
  %17 = load i64, ptr %16, align 8
  %18 = add i64 %17, %15
  store i64 %18, ptr %16, align 8
  %indvars.iv.next.i = add nuw nsw i64 %indvars.iv.i, 1
  %exitcond.not.i = icmp eq i64 %indvars.iv.next.i, 4
  br i1 %exitcond.not.i, label %_ZN27G1MonotonicArenaMemoryStats3addES_.exit, label %8, !llvm.loop !14

_ZN27G1MonotonicArenaMemoryStats3addES_.exit:     ; preds = %8
  call void @llvm.lifetime.end.p0(i64 64, ptr nonnull %4)
  %19 = getelementptr inbounds i8, ptr %0, i64 40
  %20 = load i32, ptr %19, align 8
  %.not = icmp eq i32 %20, 0
  br i1 %.not, label %21, label %27

21:                                               ; preds = %_ZN27G1MonotonicArenaMemoryStats3addES_.exit
  %22 = load volatile ptr, ptr getelementptr inbounds (i8, ptr @_ZN16LogTagSetMappingILN6LogTag4typeE49ELS1_158ELS1_0ELS1_0ELS1_0ELS1_0EE7_tagsetE, i64 48), align 8
  %.not.i = icmp eq ptr %22, null
  br i1 %.not.i, label %_ZN30G1MonotonicArenaFreeMemoryTask9set_stateENS_5StateE.exit, label %23

23:                                               ; preds = %21
  tail call void (ptr, ...) @_ZN7LogImplILN6LogTag4typeE49ELS1_158ELS1_0ELS1_0ELS1_0ELS1_0EE5writeILN8LogLevel4typeE1EEEvPKcz(ptr noundef nonnull @.str.13, ptr noundef nonnull @.str, ptr noundef nonnull @.str.4)
  br label %_ZN30G1MonotonicArenaFreeMemoryTask9set_stateENS_5StateE.exit

_ZN30G1MonotonicArenaFreeMemoryTask9set_stateENS_5StateE.exit: ; preds = %21, %23
  store i32 1, ptr %19, align 8
  %24 = load ptr, ptr @_ZN8Universe14_collectedHeapE, align 8
  %25 = getelementptr inbounds i8, ptr %24, i64 104
  %26 = load ptr, ptr %25, align 8
  tail call void @_ZN15G1ServiceThread13schedule_taskEP13G1ServiceTaskl(ptr noundef nonnull align 8 dereferenceable(1064) %26, ptr noundef nonnull %0, i64 noundef 0) #14
  br label %27

27:                                               ; preds = %_ZN30G1MonotonicArenaFreeMemoryTask9set_stateENS_5StateE.exit, %_ZN27G1MonotonicArenaMemoryStats3addES_.exit
  ret void
}